target datalayout = "e-m:e-p270:32:32-p271:32:32-p272:64:64-i64:64-i128:128-f80:128-n8:16:32:64-S128"
target triple = "x86_64-pc-linux-gnu"

%struct.pmix_pointer_array_t = type { %struct.pmix_object_t, i32, i32, i32, i32, i32, ptr, ptr }
%struct.pmix_object_t = type { %union.pthread_mutex_t, ptr, i32, %struct.pmix_tma }
%union.pthread_mutex_t = type { %struct.__pthread_mutex_s }
%struct.__pthread_mutex_s = type { i32, i32, i32, i32, i32, i16, i16, %struct.__pthread_internal_list }
%struct.__pthread_internal_list = type { ptr, ptr }
%struct.pmix_tma = type { ptr, ptr, ptr, ptr, ptr, ptr, ptr, ptr }

; Function Attrs: nounwind uwtable
define i32 @pmix_pointer_array_set_size(ptr noundef %0, i32 noundef %1) #0 {
  %3 = alloca i32, align 4
  %4 = alloca ptr, align 8
  %5 = alloca i32, align 4
  store ptr %0, ptr %4, align 8, !tbaa !3
  store i32 %1, ptr %5, align 4, !tbaa !23
  %6 = load i32, ptr %5, align 4, !tbaa !23
  %7 = load ptr, ptr %4, align 8, !tbaa !3
  %8 = getelementptr inbounds nuw %struct.pmix_pointer_array_t, ptr %7, i32 0, i32 3
  %9 = load i32, ptr %8, align 8, !tbaa !16
  %10 = icmp sgt i32 %6, %9
  br i1 %10, label %11, label %17

11:                                               ; preds = %2
  %12 = load ptr, ptr %4, align 8, !tbaa !3
  %13 = load i32, ptr %5, align 4, !tbaa !23
  %14 = call zeroext i1 @grow_table(ptr noundef %12, i32 noundef %13)
  br i1 %14, label %16, label %15

15:                                               ; preds = %11
  store i32 -1, ptr %3, align 4
  br label %18

16:                                               ; preds = %11
  br label %17

17:                                               ; preds = %16, %2
  store i32 0, ptr %3, align 4
  br label %18

18:                                               ; preds = %17, %15
  %19 = load i32, ptr %3, align 4
  ret i32 %19
}