; Function Attrs: nounwind uwtable
define range(i32 -1, 1) i32 @pmix_pointer_array_set_size(ptr noundef %0, i32 noundef %1) local_unnamed_addr #1 {
  %3 = getelementptr inbounds nuw i8, ptr %0, i64 128
  %4 = load i32, ptr %3, align 8, !tbaa !14
  %5 = icmp sgt i32 %1, %4
  br i1 %5, label %6, label %8

6:                                                ; preds = %2
  %7 = tail call fastcc zeroext i1 @grow_table(ptr noundef nonnull %0, i32 noundef %1)
  br i1 %7, label %8, label %9

8:                                                ; preds = %6, %2
  br label %9

9:                                                ; preds = %6, %8
  %.0 = phi i32 [ 0, %8 ], [ -1, %6 ]
  ret i32 %.0
}